target datalayout = "e-m:e-p270:32:32-p271:32:32-p272:64:64-i64:64-i128:128-f80:128-n8:16:32:64-S128"
target triple = "x86_64-pc-linux-gnu"

%struct.yy_buffer_state = type { ptr, ptr, ptr, i32, i32, i32, i32, i32, i32, i32, i32, i32 }

@V3PreLextext = dso_local global ptr null, align 8
@_ZL15yy_buffer_stack = internal global ptr null, align 8
@_ZL19yy_buffer_stack_top = internal global i64 0, align 8
@_ZL10yy_c_buf_p = internal global ptr null, align 8
@_ZL12yy_hold_char = internal global i8 0, align 1
@_ZL10yy_n_chars = internal global i32 0, align 4
@.str.234 = private unnamed_addr constant [32 x i8] c"flex scanner push-back overflow\00", align 1

; Function Attrs: mustprogress uwtable
define internal void @_ZL7yyunputiPc(i32 noundef %0, ptr noundef %1) #5 {
  %3 = alloca i32, align 4
  %4 = alloca ptr, align 8
  %5 = alloca ptr, align 8
  %6 = alloca i32, align 4
  %7 = alloca ptr, align 8
  %8 = alloca ptr, align 8
  store i32 %0, ptr %3, align 4, !tbaa !9
  store ptr %1, ptr %4, align 8, !tbaa !4
  call void @llvm.lifetime.start.p0(i64 8, ptr %5) #3
  %9 = load ptr, ptr @_ZL10yy_c_buf_p, align 8, !tbaa !4
  store ptr %9, ptr %5, align 8, !tbaa !4
  %10 = load i8, ptr @_ZL12yy_hold_char, align 1, !tbaa !20
  %11 = load ptr, ptr %5, align 8, !tbaa !4
  store i8 %10, ptr %11, align 1, !tbaa !20
  %12 = load ptr, ptr %5, align 8, !tbaa !4
  %13 = load ptr, ptr @_ZL15yy_buffer_stack, align 8, !tbaa !15
  %14 = load i64, ptr @_ZL19yy_buffer_stack_top, align 8, !tbaa !11
  %15 = getelementptr inbounds nuw ptr, ptr %13, i64 %14
  %16 = load ptr, ptr %15, align 8, !tbaa !18
  %17 = getelementptr inbounds nuw %struct.yy_buffer_state, ptr %16, i32 0, i32 1
  %18 = load ptr, ptr %17, align 8, !tbaa !63
  %19 = getelementptr inbounds i8, ptr %18, i64 2
  %20 = icmp ult ptr %12, %19
  br i1 %20, label %21, label %104

21:                                               ; preds = %2
  call void @llvm.lifetime.start.p0(i64 4, ptr %6) #3
  %22 = load i32, ptr @_ZL10yy_n_chars, align 4, !tbaa !9
  %23 = add nsw i32 %22, 2
  store i32 %23, ptr %6, align 4, !tbaa !9
  call void @llvm.lifetime.start.p0(i64 8, ptr %7) #3
  %24 = load ptr, ptr @_ZL15yy_buffer_stack, align 8, !tbaa !15
  %25 = load i64, ptr @_ZL19yy_buffer_stack_top, align 8, !tbaa !11
  %26 = getelementptr inbounds nuw ptr, ptr %24, i64 %25
  %27 = load ptr, ptr %26, align 8, !tbaa !18
  %28 = getelementptr inbounds nuw %struct.yy_buffer_state, ptr %27, i32 0, i32 1
  %29 = load ptr, ptr %28, align 8, !tbaa !63
  %30 = load ptr, ptr @_ZL15yy_buffer_stack, align 8, !tbaa !15
  %31 = load i64, ptr @_ZL19yy_buffer_stack_top, align 8, !tbaa !11
  %32 = getelementptr inbounds nuw ptr, ptr %30, i64 %31
  %33 = load ptr, ptr %32, align 8, !tbaa !18
  %34 = getelementptr inbounds nuw %struct.yy_buffer_state, ptr %33, i32 0, i32 3
  %35 = load i32, ptr %34, align 8, !tbaa !65
  %36 = add nsw i32 %35, 2
  %37 = sext i32 %36 to i64
  %38 = getelementptr inbounds i8, ptr %29, i64 %37
  store ptr %38, ptr %7, align 8, !tbaa !4
  call void @llvm.lifetime.start.p0(i64 8, ptr %8) #3
  %39 = load ptr, ptr @_ZL15yy_buffer_stack, align 8, !tbaa !15
  %40 = load i64, ptr @_ZL19yy_buffer_stack_top, align 8, !tbaa !11
  %41 = getelementptr inbounds nuw ptr, ptr %39, i64 %40
  %42 = load ptr, ptr %41, align 8, !tbaa !18
  %43 = getelementptr inbounds nuw %struct.yy_buffer_state, ptr %42, i32 0, i32 1
  %44 = load ptr, ptr %43, align 8, !tbaa !63
  %45 = load i32, ptr %6, align 4, !tbaa !9
  %46 = sext i32 %45 to i64
  %47 = getelementptr inbounds i8, ptr %44, i64 %46
  store ptr %47, ptr %8, align 8, !tbaa !4
  br label %48

48:                                               ; preds = %57, %21
  %49 = load ptr, ptr %8, align 8, !tbaa !4
  %50 = load ptr, ptr @_ZL15yy_buffer_stack, align 8, !tbaa !15
  %51 = load i64, ptr @_ZL19yy_buffer_stack_top, align 8, !tbaa !11
  %52 = getelementptr inbounds nuw ptr, ptr %50, i64 %51
  %53 = load ptr, ptr %52, align 8, !tbaa !18
  %54 = getelementptr inbounds nuw %struct.yy_buffer_state, ptr %53, i32 0, i32 1
  %55 = load ptr, ptr %54, align 8, !tbaa !63
  %56 = icmp ugt ptr %49, %55
  br i1 %56, label %57, label %63

57:                                               ; preds = %48
  %58 = load ptr, ptr %8, align 8, !tbaa !4
  %59 = getelementptr inbounds i8, ptr %58, i32 -1
  store ptr %59, ptr %8, align 8, !tbaa !4
  %60 = load i8, ptr %59, align 1, !tbaa !20
  %61 = load ptr, ptr %7, align 8, !tbaa !4
  %62 = getelementptr inbounds i8, ptr %61, i32 -1
  store ptr %62, ptr %7, align 8, !tbaa !4
  store i8 %60, ptr %62, align 1, !tbaa !20
  br label %48, !llvm.loop !140

63:                                               ; preds = %48
  %64 = load ptr, ptr %7, align 8, !tbaa !4
  %65 = load ptr, ptr %8, align 8, !tbaa !4
  %66 = ptrtoint ptr %64 to i64
  %67 = ptrtoint ptr %65 to i64
  %68 = sub i64 %66, %67
  %69 = trunc i64 %68 to i32
  %70 = load ptr, ptr %5, align 8, !tbaa !4
  %71 = sext i32 %69 to i64
  %72 = getelementptr inbounds i8, ptr %70, i64 %71
  store ptr %72, ptr %5, align 8, !tbaa !4
  %73 = load ptr, ptr %7, align 8, !tbaa !4
  %74 = load ptr, ptr %8, align 8, !tbaa !4
  %75 = ptrtoint ptr %73 to i64
  %76 = ptrtoint ptr %74 to i64
  %77 = sub i64 %75, %76
  %78 = trunc i64 %77 to i32
  %79 = load ptr, ptr %4, align 8, !tbaa !4
  %80 = sext i32 %78 to i64
  %81 = getelementptr inbounds i8, ptr %79, i64 %80
  store ptr %81, ptr %4, align 8, !tbaa !4
  %82 = load ptr, ptr @_ZL15yy_buffer_stack, align 8, !tbaa !15
  %83 = load i64, ptr @_ZL19yy_buffer_stack_top, align 8, !tbaa !11
  %84 = getelementptr inbounds nuw ptr, ptr %82, i64 %83
  %85 = load ptr, ptr %84, align 8, !tbaa !18
  %86 = getelementptr inbounds nuw %struct.yy_buffer_state, ptr %85, i32 0, i32 3
  %87 = load i32, ptr %86, align 8, !tbaa !65
  store i32 %87, ptr @_ZL10yy_n_chars, align 4, !tbaa !9
  %88 = load ptr, ptr @_ZL15yy_buffer_stack, align 8, !tbaa !15
  %89 = load i64, ptr @_ZL19yy_buffer_stack_top, align 8, !tbaa !11
  %90 = getelementptr inbounds nuw ptr, ptr %88, i64 %89
  %91 = load ptr, ptr %90, align 8, !tbaa !18
  %92 = getelementptr inbounds nuw %struct.yy_buffer_state, ptr %91, i32 0, i32 4
  store i32 %87, ptr %92, align 4, !tbaa !61
  %93 = load ptr, ptr %5, align 8, !tbaa !4
  %94 = load ptr, ptr @_ZL15yy_buffer_stack, align 8, !tbaa !15
  %95 = load i64, ptr @_ZL19yy_buffer_stack_top, align 8, !tbaa !11
  %96 = getelementptr inbounds nuw ptr, ptr %94, i64 %95
  %97 = load ptr, ptr %96, align 8, !tbaa !18
  %98 = getelementptr inbounds nuw %struct.yy_buffer_state, ptr %97, i32 0, i32 1
  %99 = load ptr, ptr %98, align 8, !tbaa !63
  %100 = getelementptr inbounds i8, ptr %99, i64 2
  %101 = icmp ult ptr %93, %100
  br i1 %101, label %102, label %103

102:                                              ; preds = %63
  call void @_ZL14yy_fatal_errorPKc(ptr noundef @.str.234) #26
  unreachable

103:                                              ; preds = %63
  call void @llvm.lifetime.end.p0(i64 8, ptr %8) #3
  call void @llvm.lifetime.end.p0(i64 8, ptr %7) #3
  call void @llvm.lifetime.end.p0(i64 4, ptr %6) #3
  br label %104

104:                                              ; preds = %103, %2
  %105 = load i32, ptr %3, align 4, !tbaa !9
  %106 = trunc i32 %105 to i8
  %107 = load ptr, ptr %5, align 8, !tbaa !4
  %108 = getelementptr inbounds i8, ptr %107, i32 -1
  store ptr %108, ptr %5, align 8, !tbaa !4
  store i8 %106, ptr %108, align 1, !tbaa !20
  %109 = load ptr, ptr %4, align 8, !tbaa !4
  store ptr %109, ptr @V3PreLextext, align 8, !tbaa !4
  %110 = load ptr, ptr %5, align 8, !tbaa !4
  %111 = load i8, ptr %110, align 1, !tbaa !20
  store i8 %111, ptr @_ZL12yy_hold_char, align 1, !tbaa !20
  %112 = load ptr, ptr %5, align 8, !tbaa !4
  store ptr %112, ptr @_ZL10yy_c_buf_p, align 8, !tbaa !4
  call void @llvm.lifetime.end.p0(i64 8, ptr %5) #3
  ret void
}