; Function Attrs: mustprogress nofree nounwind uwtable
define internal fastcc void @_ZL7yyunputiPc(i32 noundef range(i32 -128, 128) %0, ptr noundef %1) unnamed_addr #13 {
  %3 = load ptr, ptr @_ZL10yy_c_buf_p, align 8, !tbaa !4
  %4 = load i8, ptr @_ZL12yy_hold_char, align 1, !tbaa !27
  store i8 %4, ptr %3, align 1, !tbaa !27
  %5 = load ptr, ptr @_ZL15yy_buffer_stack, align 8, !tbaa !13
  %6 = load i64, ptr @_ZL19yy_buffer_stack_top, align 8, !tbaa !16
  %7 = getelementptr inbounds nuw ptr, ptr %5, i64 %6
  %8 = load ptr, ptr %7, align 8, !tbaa !18
  %9 = getelementptr inbounds nuw i8, ptr %8, i64 8
  %10 = load ptr, ptr %9, align 8, !tbaa !22
  %11 = getelementptr inbounds nuw i8, ptr %10, i64 2
  %12 = icmp ult ptr %3, %11
  br i1 %12, label %13, label %43

13:                                               ; preds = %2
  %14 = load i32, ptr @_ZL10yy_n_chars, align 4, !tbaa !9
  %15 = getelementptr inbounds nuw i8, ptr %8, i64 24
  %16 = load i32, ptr %15, align 8, !tbaa !20
  %17 = sext i32 %16 to i64
  %18 = getelementptr i8, ptr %10, i64 %17
  %19 = getelementptr i8, ptr %18, i64 2
  %20 = sext i32 %14 to i64
  %21 = getelementptr i8, ptr %10, i64 %20
  %22 = getelementptr i8, ptr %21, i64 2
  %23 = icmp ugt ptr %22, %10
  br i1 %23, label %.lr.ph, label %._crit_edge

.lr.ph:                                           ; preds = %13, %.lr.ph
  %.024 = phi ptr [ %24, %.lr.ph ], [ %22, %13 ]
  %.01723 = phi ptr [ %26, %.lr.ph ], [ %19, %13 ]
  %24 = getelementptr inbounds i8, ptr %.024, i64 -1
  %25 = load i8, ptr %24, align 1, !tbaa !27
  %26 = getelementptr inbounds i8, ptr %.01723, i64 -1
  store i8 %25, ptr %26, align 1, !tbaa !27
  %27 = load ptr, ptr %7, align 8, !tbaa !18
  %28 = getelementptr inbounds nuw i8, ptr %27, i64 8
  %29 = load ptr, ptr %28, align 8, !tbaa !22
  %30 = icmp ugt ptr %24, %29
  br i1 %30, label %.lr.ph, label %._crit_edge.loopexit, !llvm.loop !722

._crit_edge.loopexit:                             ; preds = %.lr.ph
  %.phi.trans.insert = getelementptr inbounds nuw i8, ptr %27, i64 24
  %.pre = load i32, ptr %.phi.trans.insert, align 8, !tbaa !20
  br label %._crit_edge

._crit_edge:                                      ; preds = %._crit_edge.loopexit, %13
  %31 = phi i32 [ %16, %13 ], [ %.pre, %._crit_edge.loopexit ]
  %.017.lcssa = phi ptr [ %19, %13 ], [ %26, %._crit_edge.loopexit ]
  %.0.lcssa = phi ptr [ %22, %13 ], [ %24, %._crit_edge.loopexit ]
  %.lcssa22 = phi ptr [ %8, %13 ], [ %27, %._crit_edge.loopexit ]
  %.lcssa = phi ptr [ %10, %13 ], [ %29, %._crit_edge.loopexit ]
  %32 = ptrtoint ptr %.017.lcssa to i64
  %33 = ptrtoint ptr %.0.lcssa to i64
  %34 = sub i64 %32, %33
  %sext = shl i64 %34, 32
  %35 = ashr exact i64 %sext, 32
  %36 = getelementptr inbounds i8, ptr %3, i64 %35
  store i32 %31, ptr @_ZL10yy_n_chars, align 4, !tbaa !9
  %37 = getelementptr inbounds nuw i8, ptr %.lcssa22, i64 28
  store i32 %31, ptr %37, align 4, !tbaa !24
  %38 = getelementptr inbounds nuw i8, ptr %.lcssa, i64 2
  %39 = icmp ult ptr %36, %38
  br i1 %39, label %40, label %41

40:                                               ; preds = %._crit_edge
  tail call fastcc void @_ZL14yy_fatal_errorPKc(ptr noundef nonnull @.str.234) #42
  unreachable

41:                                               ; preds = %._crit_edge
  %42 = getelementptr inbounds i8, ptr %1, i64 %35
  br label %43

43:                                               ; preds = %41, %2
  %.019 = phi ptr [ %36, %41 ], [ %3, %2 ]
  %.018 = phi ptr [ %42, %41 ], [ %1, %2 ]
  %44 = trunc nsw i32 %0 to i8
  %45 = getelementptr inbounds i8, ptr %.019, i64 -1
  store i8 %44, ptr %45, align 1, !tbaa !27
  store ptr %.018, ptr @V3PreLextext, align 8, !tbaa !4
  %46 = load i8, ptr %45, align 1, !tbaa !27
  store i8 %46, ptr @_ZL12yy_hold_char, align 1, !tbaa !27
  store ptr %45, ptr @_ZL10yy_c_buf_p, align 8, !tbaa !4
  ret void
}